; Function Attrs: nounwind uwtable
define internal void @dh_gen_cleanup(ptr noundef %0) #0 {
  %2 = icmp eq ptr %0, null
  br i1 %2, label %12, label %3

3:                                                ; preds = %1
  %4 = getelementptr inbounds nuw i8, ptr %0, i64 80
  %5 = load ptr, ptr %4, align 8, !tbaa !16
  tail call void @CRYPTO_free(ptr noundef %5, ptr noundef nonnull @.str, i32 noundef 816) #8
  %6 = getelementptr inbounds nuw i8, ptr %0, i64 88
  %7 = load ptr, ptr %6, align 8, !tbaa !28
  tail call void @CRYPTO_free(ptr noundef %7, ptr noundef nonnull @.str, i32 noundef 817) #8
  %8 = getelementptr inbounds nuw i8, ptr %0, i64 40
  %9 = load ptr, ptr %8, align 8, !tbaa !26
  %10 = getelementptr inbounds nuw i8, ptr %0, i64 48
  %11 = load i64, ptr %10, align 8, !tbaa !27
  tail call void @CRYPTO_clear_free(ptr noundef %9, i64 noundef %11, ptr noundef nonnull @.str, i32 noundef 818) #8
  tail call void @CRYPTO_free(ptr noundef nonnull %0, ptr noundef nonnull @.str, i32 noundef 819) #8
  br label %12

12:                                               ; preds = %1, %3
  ret void
}